; Function Attrs: mustprogress nofree norecurse nosync nounwind willreturn memory(read, inaccessiblemem: none) uwtable
define noundef i64 @_ZNK32pxrInternal_v0_24__pxrReserved__33SdfPredicateParamNamesAndDefaults14_CountDefaultsEv(ptr noundef nonnull readonly align 8 captures(none) dereferenceable(32) %0) local_unnamed_addr #1 align 2 {
  %2 = load ptr, ptr %0, align 8
  %3 = getelementptr inbounds nuw i8, ptr %0, i64 8
  %4 = load ptr, ptr %3, align 8
  %.not8 = icmp eq ptr %2, %4
  br i1 %.not8, label %._crit_edge, label %.lr.ph

.lr.ph:                                           ; preds = %1, %.lr.ph
  %.010 = phi i64 [ %spec.select, %.lr.ph ], [ 0, %1 ]
  %.sroa.05.09 = phi ptr [ %9, %.lr.ph ], [ %2, %1 ]
  %5 = getelementptr inbounds nuw i8, ptr %.sroa.05.09, i64 40
  %6 = load ptr, ptr %5, align 8
  %7 = icmp ne ptr %6, null
  %8 = zext i1 %7 to i64
  %spec.select = add i64 %.010, %8
  %9 = getelementptr inbounds nuw i8, ptr %.sroa.05.09, i64 48
  %.not = icmp eq ptr %9, %4
  br i1 %.not, label %._crit_edge, label %.lr.ph

._crit_edge:                                      ; preds = %.lr.ph, %1
  %.0.lcssa = phi i64 [ 0, %1 ], [ %spec.select, %.lr.ph ]
  ret i64 %.0.lcssa
}